target datalayout = "e-m:e-p270:32:32-p271:32:32-p272:64:64-i64:64-i128:128-f80:128-n8:16:32:64-S128"
target triple = "x86_64-pc-linux-gnu"

%struct.Mio_LibraryStruct_t_ = type { ptr, i32, ptr, ptr, ptr, ptr, ptr, ptr, ptr, ptr, ptr, ptr, ptr, ptr, ptr, ptr, i32, i32, i32, ptr, ptr, ptr, i32, ptr, ptr, ptr, ptr, [3 x ptr], [3 x ptr] }
%struct.Mio_GateStruct_t_ = type { ptr, double, ptr, ptr, ptr, ptr, ptr, ptr, i32, i32, i32, i32, double, ptr, ptr, %union.anon, i32 }
%union.anon = type { i64 }

; Function Attrs: nounwind uwtable
define void @Mio_LibrarySortGates(ptr noundef %0) #0 {
  %2 = alloca ptr, align 8
  %3 = alloca ptr, align 8
  %4 = alloca ptr, align 8
  %5 = alloca i32, align 4
  store ptr %0, ptr %2, align 8, !tbaa !14
  call void @llvm.lifetime.start.p0(i64 8, ptr %3) #10
  call void @llvm.lifetime.start.p0(i64 8, ptr %4) #10
  call void @llvm.lifetime.start.p0(i64 4, ptr %5) #10
  store i32 0, ptr %5, align 4, !tbaa !8
  %6 = load ptr, ptr %2, align 8, !tbaa !14
  %7 = getelementptr inbounds nuw %struct.Mio_LibraryStruct_t_, ptr %6, i32 0, i32 1
  %8 = load i32, ptr %7, align 8, !tbaa !71
  %9 = sext i32 %8 to i64
  %10 = mul i64 8, %9
  %11 = call noalias ptr @malloc(i64 noundef %10) #12
  store ptr %11, ptr %3, align 8, !tbaa !44
  %12 = load ptr, ptr %2, align 8, !tbaa !14
  %13 = call ptr @Mio_LibraryReadGates(ptr noundef %12)
  store ptr %13, ptr %4, align 8, !tbaa !46
  br label %14

14:                                               ; preds = %27, %1
  %15 = load ptr, ptr %4, align 8, !tbaa !46
  %16 = icmp ne ptr %15, null
  br i1 %16, label %17, label %30

17:                                               ; preds = %14
  %18 = load i32, ptr %5, align 4, !tbaa !8
  %19 = load ptr, ptr %4, align 8, !tbaa !46
  %20 = getelementptr inbounds nuw %struct.Mio_GateStruct_t_, ptr %19, i32 0, i32 8
  store i32 %18, ptr %20, align 8, !tbaa !72
  %21 = load ptr, ptr %4, align 8, !tbaa !46
  %22 = load ptr, ptr %3, align 8, !tbaa !44
  %23 = load i32, ptr %5, align 4, !tbaa !8
  %24 = add nsw i32 %23, 1
  store i32 %24, ptr %5, align 4, !tbaa !8
  %25 = sext i32 %23 to i64
  %26 = getelementptr inbounds ptr, ptr %22, i64 %25
  store ptr %21, ptr %26, align 8, !tbaa !46
  br label %27

27:                                               ; preds = %17
  %28 = load ptr, ptr %4, align 8, !tbaa !46
  %29 = call ptr @Mio_GateReadNext(ptr noundef %28)
  store ptr %29, ptr %4, align 8, !tbaa !46
  br label %14, !llvm.loop !73

30:                                               ; preds = %14
  %31 = load ptr, ptr %2, align 8, !tbaa !14
  %32 = getelementptr inbounds nuw %struct.Mio_LibraryStruct_t_, ptr %31, i32 0, i32 1
  %33 = load i32, ptr %32, align 8, !tbaa !71
  %34 = sext i32 %33 to i64
  %35 = mul i64 8, %34
  %36 = call noalias ptr @malloc(i64 noundef %35) #12
  %37 = load ptr, ptr %2, align 8, !tbaa !14
  %38 = getelementptr inbounds nuw %struct.Mio_LibraryStruct_t_, ptr %37, i32 0, i32 2
  store ptr %36, ptr %38, align 8, !tbaa !74
  store i32 0, ptr %5, align 4, !tbaa !8
  br label %39

39:                                               ; preds = %57, %30
  %40 = load i32, ptr %5, align 4, !tbaa !8
  %41 = load ptr, ptr %2, align 8, !tbaa !14
  %42 = getelementptr inbounds nuw %struct.Mio_LibraryStruct_t_, ptr %41, i32 0, i32 1
  %43 = load i32, ptr %42, align 8, !tbaa !71
  %44 = icmp slt i32 %40, %43
  br i1 %44, label %45, label %60

45:                                               ; preds = %39
  %46 = load ptr, ptr %3, align 8, !tbaa !44
  %47 = load i32, ptr %5, align 4, !tbaa !8
  %48 = sext i32 %47 to i64
  %49 = getelementptr inbounds ptr, ptr %46, i64 %48
  %50 = load ptr, ptr %49, align 8, !tbaa !46
  %51 = load ptr, ptr %2, align 8, !tbaa !14
  %52 = getelementptr inbounds nuw %struct.Mio_LibraryStruct_t_, ptr %51, i32 0, i32 2
  %53 = load ptr, ptr %52, align 8, !tbaa !74
  %54 = load i32, ptr %5, align 4, !tbaa !8
  %55 = sext i32 %54 to i64
  %56 = getelementptr inbounds ptr, ptr %53, i64 %55
  store ptr %50, ptr %56, align 8, !tbaa !46
  br label %57

57:                                               ; preds = %45
  %58 = load i32, ptr %5, align 4, !tbaa !8
  %59 = add nsw i32 %58, 1
  store i32 %59, ptr %5, align 4, !tbaa !8
  br label %39, !llvm.loop !75

60:                                               ; preds = %39
  %61 = load ptr, ptr %3, align 8, !tbaa !44
  %62 = load ptr, ptr %2, align 8, !tbaa !14
  %63 = getelementptr inbounds nuw %struct.Mio_LibraryStruct_t_, ptr %62, i32 0, i32 1
  %64 = load i32, ptr %63, align 8, !tbaa !71
  %65 = sext i32 %64 to i64
  call void @qsort(ptr noundef %61, i64 noundef %65, i64 noundef 8, ptr noundef @Mio_LibraryCompareGatesByName)
  store i32 0, ptr %5, align 4, !tbaa !8
  br label %66

66:                                               ; preds = %95, %60
  %67 = load i32, ptr %5, align 4, !tbaa !8
  %68 = load ptr, ptr %2, align 8, !tbaa !14
  %69 = getelementptr inbounds nuw %struct.Mio_LibraryStruct_t_, ptr %68, i32 0, i32 1
  %70 = load i32, ptr %69, align 8, !tbaa !71
  %71 = icmp slt i32 %67, %70
  br i1 %71, label %72, label %98

72:                                               ; preds = %66
  %73 = load i32, ptr %5, align 4, !tbaa !8
  %74 = load ptr, ptr %2, align 8, !tbaa !14
  %75 = getelementptr inbounds nuw %struct.Mio_LibraryStruct_t_, ptr %74, i32 0, i32 1
  %76 = load i32, ptr %75, align 8, !tbaa !71
  %77 = sub nsw i32 %76, 1
  %78 = icmp slt i32 %73, %77
  br i1 %78, label %79, label %86

79:                                               ; preds = %72
  %80 = load ptr, ptr %3, align 8, !tbaa !44
  %81 = load i32, ptr %5, align 4, !tbaa !8
  %82 = add nsw i32 %81, 1
  %83 = sext i32 %82 to i64
  %84 = getelementptr inbounds ptr, ptr %80, i64 %83
  %85 = load ptr, ptr %84, align 8, !tbaa !46
  br label %87

86:                                               ; preds = %72
  br label %87

87:                                               ; preds = %86, %79
  %88 = phi ptr [ %85, %79 ], [ null, %86 ]
  %89 = load ptr, ptr %3, align 8, !tbaa !44
  %90 = load i32, ptr %5, align 4, !tbaa !8
  %91 = sext i32 %90 to i64
  %92 = getelementptr inbounds ptr, ptr %89, i64 %91
  %93 = load ptr, ptr %92, align 8, !tbaa !46
  %94 = getelementptr inbounds nuw %struct.Mio_GateStruct_t_, ptr %93, i32 0, i32 6
  store ptr %88, ptr %94, align 8, !tbaa !76
  br label %95

95:                                               ; preds = %87
  %96 = load i32, ptr %5, align 4, !tbaa !8
  %97 = add nsw i32 %96, 1
  store i32 %97, ptr %5, align 4, !tbaa !8
  br label %66, !llvm.loop !77

98:                                               ; preds = %66
  %99 = load ptr, ptr %3, align 8, !tbaa !44
  %100 = getelementptr inbounds ptr, ptr %99, i64 0
  %101 = load ptr, ptr %100, align 8, !tbaa !46
  %102 = load ptr, ptr %2, align 8, !tbaa !14
  %103 = getelementptr inbounds nuw %struct.Mio_LibraryStruct_t_, ptr %102, i32 0, i32 4
  store ptr %101, ptr %103, align 8, !tbaa !43
  %104 = load ptr, ptr %3, align 8, !tbaa !44
  %105 = load ptr, ptr %2, align 8, !tbaa !14
  %106 = getelementptr inbounds nuw %struct.Mio_LibraryStruct_t_, ptr %105, i32 0, i32 3
  store ptr %104, ptr %106, align 8, !tbaa !78
  call void @llvm.lifetime.end.p0(i64 4, ptr %5) #10
  call void @llvm.lifetime.end.p0(i64 8, ptr %4) #10
  call void @llvm.lifetime.end.p0(i64 8, ptr %3) #10
  ret void
}