; Function Attrs: nounwind uwtable
define void @Mio_LibrarySortGates(ptr noundef %0) local_unnamed_addr #0 {
  %2 = getelementptr inbounds nuw i8, ptr %0, i64 8
  %3 = load i32, ptr %2, align 8, !tbaa !78
  %4 = sext i32 %3 to i64
  %5 = shl nsw i64 %4, 3
  %6 = tail call noalias ptr @malloc(i64 noundef %5) #19
  %7 = tail call ptr @Mio_LibraryReadGates(ptr noundef %0) #17
  %.not35 = icmp eq ptr %7, null
  br i1 %.not35, label %._crit_edge, label %.lr.ph

.lr.ph:                                           ; preds = %1, %.lr.ph
  %indvars.iv = phi i64 [ %indvars.iv.next, %.lr.ph ], [ 0, %1 ]
  %.03236 = phi ptr [ %11, %.lr.ph ], [ %7, %1 ]
  %8 = getelementptr inbounds nuw i8, ptr %.03236, i64 64
  %9 = trunc nuw nsw i64 %indvars.iv to i32
  store i32 %9, ptr %8, align 8, !tbaa !36
  %indvars.iv.next = add nuw nsw i64 %indvars.iv, 1
  %10 = getelementptr inbounds nuw ptr, ptr %6, i64 %indvars.iv
  store ptr %.03236, ptr %10, align 8, !tbaa !66
  %11 = tail call ptr @Mio_GateReadNext(ptr noundef nonnull %.03236) #17
  %.not = icmp eq ptr %11, null
  br i1 %.not, label %._crit_edge, label %.lr.ph, !llvm.loop !79

._crit_edge:                                      ; preds = %.lr.ph, %1
  %12 = load i32, ptr %2, align 8, !tbaa !78
  %13 = sext i32 %12 to i64
  %14 = shl nsw i64 %13, 3
  %15 = tail call noalias ptr @malloc(i64 noundef %14) #19
  %16 = getelementptr inbounds nuw i8, ptr %0, i64 16
  store ptr %15, ptr %16, align 8, !tbaa !80
  %17 = icmp sgt i32 %12, 0
  br i1 %17, label %.lr.ph40.preheader, label %._crit_edge41

.lr.ph40.preheader:                               ; preds = %._crit_edge
  %18 = zext nneg i32 %12 to i64
  %19 = shl nuw nsw i64 %18, 3
  tail call void @llvm.memcpy.p0.p0.i64(ptr align 8 %15, ptr align 8 %6, i64 %19, i1 false), !tbaa !66
  br label %._crit_edge41

._crit_edge41:                                    ; preds = %.lr.ph40.preheader, %._crit_edge
  tail call void @qsort(ptr noundef %6, i64 noundef %13, i64 noundef 8, ptr noundef nonnull @Mio_LibraryCompareGatesByName) #17
  %20 = load i32, ptr %2, align 8, !tbaa !78
  %invariant.gep = getelementptr inbounds nuw i8, ptr %6, i64 8
  %21 = icmp sgt i32 %20, 0
  br i1 %21, label %.lr.ph44, label %._crit_edge45

.lr.ph44:                                         ; preds = %._crit_edge41
  %22 = add nsw i32 %20, -1
  %23 = zext nneg i32 %22 to i64
  %wide.trip.count = zext nneg i32 %20 to i64
  br label %24

24:                                               ; preds = %.lr.ph44, %28
  %indvars.iv50 = phi i64 [ 0, %.lr.ph44 ], [ %indvars.iv.next51, %28 ]
  %25 = icmp samesign ult i64 %indvars.iv50, %23
  br i1 %25, label %26, label %28

26:                                               ; preds = %24
  %gep = getelementptr inbounds nuw ptr, ptr %invariant.gep, i64 %indvars.iv50
  %27 = load ptr, ptr %gep, align 8, !tbaa !66
  br label %28

28:                                               ; preds = %24, %26
  %29 = phi ptr [ %27, %26 ], [ null, %24 ]
  %30 = getelementptr inbounds nuw ptr, ptr %6, i64 %indvars.iv50
  %31 = load ptr, ptr %30, align 8, !tbaa !66
  %32 = getelementptr inbounds nuw i8, ptr %31, i64 48
  store ptr %29, ptr %32, align 8, !tbaa !81
  %indvars.iv.next51 = add nuw nsw i64 %indvars.iv50, 1
  %exitcond.not = icmp eq i64 %indvars.iv.next51, %wide.trip.count
  br i1 %exitcond.not, label %._crit_edge45, label %24, !llvm.loop !82

._crit_edge45:                                    ; preds = %28, %._crit_edge41
  %33 = load ptr, ptr %6, align 8, !tbaa !66
  %34 = getelementptr inbounds nuw i8, ptr %0, i64 32
  store ptr %33, ptr %34, align 8, !tbaa !83
  %35 = getelementptr inbounds nuw i8, ptr %0, i64 24
  store ptr %6, ptr %35, align 8, !tbaa !84
  ret void
}